; Function Attrs: inlinehint nounwind sspstrong uwtable
define internal fastcc noundef i64 @RCLASS_SET_SUPER(i64 noundef %0, i64 noundef returned %1) unnamed_addr #3 {
  %.not = icmp eq i64 %1, 0
  %3 = inttoptr i64 %0 to ptr
  br i1 %.not, label %.split, label %.split10

.split:                                           ; preds = %2
  %4 = getelementptr inbounds nuw i8, ptr %3, i64 16
  store i64 0, ptr %4, align 8, !tbaa !29
  br label %rb_obj_write.exit

.split10:                                         ; preds = %2
  %5 = getelementptr inbounds nuw i8, ptr %3, i64 96
  %6 = load ptr, ptr %5, align 8, !tbaa !25
  %.not.i = icmp eq ptr %6, null
  br i1 %.not.i, label %rb_class_remove_from_super_subclasses.exit, label %7

7:                                                ; preds = %.split10
  %8 = getelementptr inbounds nuw i8, ptr %6, i64 16
  %9 = load ptr, ptr %8, align 8, !tbaa !24
  %10 = getelementptr inbounds nuw i8, ptr %6, i64 8
  %11 = load ptr, ptr %10, align 8, !tbaa !23
  %.not13.i = icmp eq ptr %9, null
  br i1 %.not13.i, label %14, label %12

12:                                               ; preds = %7
  %13 = getelementptr inbounds nuw i8, ptr %9, i64 8
  store ptr %11, ptr %13, align 8, !tbaa !23
  br label %14

14:                                               ; preds = %12, %7
  %.not14.i = icmp eq ptr %11, null
  br i1 %.not14.i, label %17, label %15

15:                                               ; preds = %14
  %16 = getelementptr inbounds nuw i8, ptr %11, i64 16
  store ptr %9, ptr %16, align 8, !tbaa !24
  br label %17

17:                                               ; preds = %15, %14
  tail call void @ruby_xfree(ptr noundef nonnull %6) #19
  br label %rb_class_remove_from_super_subclasses.exit

rb_class_remove_from_super_subclasses.exit:       ; preds = %.split10, %17
  store ptr null, ptr %5, align 8, !tbaa !25
  %cond = icmp eq i64 %1, 36
  br i1 %cond, label %rb_class_subclass_add.exit.thread, label %19

rb_class_subclass_add.exit.thread:                ; preds = %rb_class_remove_from_super_subclasses.exit
  %18 = getelementptr inbounds nuw i8, ptr %3, i64 16
  store i64 %1, ptr %18, align 8, !tbaa !29
  br label %rb_obj_write.exit

19:                                               ; preds = %rb_class_remove_from_super_subclasses.exit
  %20 = tail call noalias nonnull dereferenceable(24) ptr @ruby_xcalloc(i64 noundef 1, i64 noundef 24) #18
  store i64 %0, ptr %20, align 8, !tbaa !7
  %21 = inttoptr i64 %1 to ptr
  %22 = getelementptr inbounds nuw i8, ptr %21, i64 88
  %23 = load ptr, ptr %22, align 8, !tbaa !14
  %.not.i.i = icmp eq ptr %23, null
  br i1 %.not.i.i, label %24, label %26

24:                                               ; preds = %19
  %25 = tail call noalias nonnull dereferenceable(24) ptr @ruby_xcalloc(i64 noundef 1, i64 noundef 24) #18
  store ptr %25, ptr %22, align 8, !tbaa !14
  br label %26

26:                                               ; preds = %24, %19
  %.0.i.i = phi ptr [ %23, %19 ], [ %25, %24 ]
  %27 = getelementptr inbounds nuw i8, ptr %.0.i.i, i64 8
  %28 = load ptr, ptr %27, align 8, !tbaa !23
  %29 = getelementptr inbounds nuw i8, ptr %20, i64 8
  store ptr %28, ptr %29, align 8, !tbaa !23
  %30 = getelementptr inbounds nuw i8, ptr %20, i64 16
  store ptr %.0.i.i, ptr %30, align 8, !tbaa !24
  %.not17.i.i = icmp eq ptr %28, null
  br i1 %.not17.i.i, label %rb_class_subclass_add.exit, label %31

31:                                               ; preds = %26
  %32 = getelementptr inbounds nuw i8, ptr %28, i64 16
  store ptr %20, ptr %32, align 8, !tbaa !24
  br label %rb_class_subclass_add.exit

rb_class_subclass_add.exit:                       ; preds = %26, %31
  store ptr %20, ptr %27, align 8, !tbaa !23
  store ptr %20, ptr %5, align 8, !tbaa !25
  %33 = getelementptr inbounds nuw i8, ptr %3, i64 16
  store i64 %1, ptr %33, align 8, !tbaa !29
  %34 = and i64 %1, 7
  %.not11 = icmp eq i64 %34, 0
  br i1 %.not11, label %35, label %rb_obj_write.exit

35:                                               ; preds = %rb_class_subclass_add.exit
  tail call void @rb_gc_writebarrier(i64 noundef %0, i64 noundef %1) #19
  br label %rb_obj_write.exit

rb_obj_write.exit:                                ; preds = %rb_class_subclass_add.exit.thread, %35, %rb_class_subclass_add.exit, %.split
  tail call void @rb_class_update_superclasses(i64 noundef %0)
  ret i64 %1
}